target datalayout = "e-m:e-p270:32:32-p271:32:32-p272:64:64-i64:64-i128:128-f80:128-n8:16:32:64-S128"
target triple = "x86_64-pc-linux-gnu"

%struct.VFIOVGARegion = type { %struct.MemoryRegion, i64, i32, %struct.anon }
%struct.MemoryRegion = type { %struct.Object, i8, i8, i8, i8, i8, i8, i8, i8, i8, i8, ptr, ptr, ptr, ptr, ptr, ptr, i32, i128, i64, ptr, i64, i8, i8, i8, i8, ptr, i64, i32, %union.anon, %union.anon.0, %union.anon.1, ptr, i32, ptr, ptr, i8 }
%struct.Object = type { ptr, ptr, ptr, i32, ptr }
%union.anon = type { %struct.QTailQLink }
%struct.QTailQLink = type { ptr, ptr }
%union.anon.0 = type { %struct.QTailQLink }
%union.anon.1 = type { %struct.QTailQLink }
%struct.anon = type { ptr }
%struct.VFIOVGA = type { i64, i32, [3 x %struct.VFIOVGARegion] }
%struct.VFIOPCIDevice = type { %struct.PCIDevice, %struct.VFIODevice, %struct.VFIOINTx, i32, ptr, i64, i32, i64, ptr, i32, ptr, ptr, i32, i32, [6 x %struct.VFIOBAR], ptr, ptr, %struct.PCIHostDeviceAddress, %struct.QemuUUID, %struct.EventNotifier, %struct.EventNotifier, ptr, i32, i32, i32, i32, i32, i32, i32, i32, i32, i32, i32, i8, i8, i8, i8, i8, i8, i8, i8, i8, i8, i8, i8, i8, i8, i32, i8, i8, i8, ptr, %struct.Notifier }
%struct.PCIDevice = type { %struct.DeviceState, i8, i8, ptr, ptr, ptr, ptr, ptr, i32, %struct.PCIReqIDCache, [64 x i8], [7 x %struct.PCIIORegion], %struct.AddressSpace, %struct.MemoryRegion, %struct.MemoryRegion, ptr, ptr, [3 x ptr], i8, i8, i32, i8, i32, ptr, ptr, ptr, ptr, ptr, ptr, %struct.MemoryRegion, %struct.MemoryRegion, %struct.MemoryRegion, ptr, i8, i32, i8, %struct.PCIExpressDevice, ptr, ptr, i32, i8, %struct.MemoryRegion, i32, ptr, ptr, ptr, ptr, i16, %struct.DOECap, ptr, i32, i32 }
%struct.DeviceState = type { %struct.Object, ptr, ptr, i8, i8, i64, i32, i8, ptr, %struct.NamedGPIOListHead, %struct.NamedClockListHead, %struct.BusStateHead, i32, i32, i32, %struct.ResettableState, ptr, %struct.MemReentrancyGuard }
%struct.NamedGPIOListHead = type { ptr }
%struct.NamedClockListHead = type { ptr }
%struct.BusStateHead = type { ptr }
%struct.ResettableState = type { i32, i8, i8 }
%struct.MemReentrancyGuard = type { i8 }
%struct.PCIReqIDCache = type { ptr, i32 }
%struct.PCIIORegion = type { i64, i64, i8, ptr, ptr }
%struct.AddressSpace = type { %struct.rcu_head, ptr, ptr, ptr, i32, i32, ptr, %union.anon.4, %union.anon.5, i64, i64, %struct.QemuMutex, %struct.anon.6 }
%struct.rcu_head = type { ptr, ptr }
%union.anon.4 = type { %struct.QTailQLink }
%union.anon.5 = type { %struct.QTailQLink }
%struct.QemuMutex = type { %union.pthread_mutex_t, i8 }
%union.pthread_mutex_t = type { %struct.__pthread_mutex_s }
%struct.__pthread_mutex_s = type { i32, i32, i32, i32, i32, i16, i16, %struct.__pthread_internal_list }
%struct.__pthread_internal_list = type { ptr, ptr }
%struct.anon.6 = type { ptr }
%struct.PCIExpressDevice = type { i8, i8, i8, i16, %struct.PCIEAERLog, i16, i16, i16, %struct.PCIESriovPF, %struct.PCIESriovVF }
%struct.PCIEAERLog = type { i16, i16, ptr }
%struct.PCIESriovPF = type { i16, [7 x i8], ptr, ptr }
%struct.PCIESriovVF = type { ptr, i16 }
%struct.DOECap = type { ptr, i16, %struct.anon.7, %struct.anon.8, %struct.anon.9, ptr, ptr, i32, i32, i32, ptr, i16, i32 }
%struct.anon.7 = type { i8, i16 }
%struct.anon.8 = type { i8, i8, i8 }
%struct.anon.9 = type { i8, i8, i8, i8 }
%struct.VFIODevice = type { %struct.anon.10, %struct.anon.11, %struct.anon.12, ptr, ptr, ptr, ptr, ptr, i32, i32, i8, i8, i8, i8, i8, i32, i8, ptr, i32, i32, i32, ptr, ptr, i32, i32, i8, i8, i8, ptr, i32, ptr, ptr, %struct.anon.13 }
%struct.anon.10 = type { ptr, ptr }
%struct.anon.11 = type { ptr, ptr }
%struct.anon.12 = type { ptr, ptr }
%struct.anon.13 = type { ptr, ptr }
%struct.VFIOINTx = type { i8, i8, i8, %struct.EventNotifier, %struct.EventNotifier, %struct.PCIINTxRoute, i32, ptr }
%struct.PCIINTxRoute = type { i32, i32 }
%struct.VFIOBAR = type { %struct.VFIORegion, ptr, i64, i8, i8, i8, %struct.anon.14 }
%struct.VFIORegion = type { ptr, i64, ptr, i64, i32, i32, ptr, i8 }
%struct.anon.14 = type { ptr }
%struct.PCIHostDeviceAddress = type { i32, i32, i32, i32 }
%struct.QemuUUID = type { %union.anon.15 }
%union.anon.15 = type { %struct.anon.16 }
%struct.anon.16 = type { i32, i16, i16, i8, i8, [6 x i8] }
%struct.EventNotifier = type { i32, i32, i8 }
%struct.Notifier = type { ptr, %struct.anon.17 }
%struct.anon.17 = type { ptr, ptr }
%struct.vfio_region_info = type { i32, i32, i32, i32, i64, i64 }

@.str.11 = private unnamed_addr constant [22 x i8] c"../qemu/hw/vfio/pci.c\00", align 1
@__func__.vfio_populate_vga = private unnamed_addr constant [18 x i8] c"vfio_populate_vga\00", align 1
@.str.14 = private unnamed_addr constant [51 x i8] c"failed getting region info for VGA region index %d\00", align 1
@.str.15 = private unnamed_addr constant [45 x i8] c"unexpected VGA info, flags 0x%lx, size 0x%lx\00", align 1
@.str.16 = private unnamed_addr constant [22 x i8] c"vfio-vga-mmio@0xa0000\00", align 1
@.str.17 = private unnamed_addr constant [18 x i8] c"vfio-vga-io@0x3b0\00", align 1
@.str.18 = private unnamed_addr constant [18 x i8] c"vfio-vga-io@0x3c0\00", align 1

; Function Attrs: inlinehint nounwind sspstrong uwtable
define internal void @g_autoptr_cleanup_generic_gfree(ptr noundef %0) #3 {
  %2 = alloca ptr, align 8
  %3 = alloca ptr, align 8
  store ptr %0, ptr %2, align 8
  call void @llvm.lifetime.start.p0(i64 8, ptr %3) #19
  %4 = load ptr, ptr %2, align 8
  store ptr %4, ptr %3, align 8
  %5 = load ptr, ptr %3, align 8
  %6 = load ptr, ptr %5, align 8
  call void @g_free(ptr noundef %6)
  call void @llvm.lifetime.end.p0(i64 8, ptr %3) #19
  ret void
}

; Function Attrs: nounwind sspstrong uwtable
define dso_local zeroext i1 @vfio_populate_vga(ptr noundef %0, ptr noundef %1) #0 {
  %3 = alloca i1, align 1
  %4 = alloca ptr, align 8
  %5 = alloca ptr, align 8
  %6 = alloca ptr, align 8
  %7 = alloca ptr, align 8
  %8 = alloca i32, align 4
  %9 = alloca i32, align 4
  %10 = alloca i64, align 8
  %11 = alloca i64, align 8
  %12 = alloca ptr, align 8
  %13 = alloca ptr, align 8
  store ptr %0, ptr %4, align 8
  store ptr %1, ptr %5, align 8
  call void @llvm.lifetime.start.p0(i64 8, ptr %6) #19
  %14 = load ptr, ptr %4, align 8
  %15 = getelementptr inbounds nuw %struct.VFIOPCIDevice, ptr %14, i32 0, i32 1
  store ptr %15, ptr %6, align 8
  call void @llvm.lifetime.start.p0(i64 8, ptr %7) #19
  store ptr null, ptr %7, align 8
  call void @llvm.lifetime.start.p0(i64 4, ptr %8) #19
  store i32 0, ptr %8, align 4, !annotation !4
  %16 = load ptr, ptr %6, align 8
  %17 = call i32 @vfio_get_region_info(ptr noundef %16, i32 noundef 8, ptr noundef %7)
  store i32 %17, ptr %8, align 4
  %18 = load i32, ptr %8, align 4
  %19 = icmp ne i32 %18, 0
  br i1 %19, label %20, label %24

20:                                               ; preds = %2
  %21 = load ptr, ptr %5, align 8
  %22 = load i32, ptr %8, align 4
  %23 = sub i32 0, %22
  call void (ptr, ptr, i32, ptr, i32, ptr, ...) @error_setg_errno_internal(ptr noundef %21, ptr noundef @.str.11, i32 noundef 2675, ptr noundef @__func__.vfio_populate_vga, i32 noundef %23, ptr noundef @.str.14, i32 noundef 8)
  store i1 false, ptr %3, align 1
  store i32 1, ptr %9, align 4
  br label %219

24:                                               ; preds = %2
  %25 = load ptr, ptr %7, align 8
  %26 = getelementptr inbounds nuw %struct.vfio_region_info, ptr %25, i32 0, i32 1
  %27 = load i32, ptr %26, align 4
  %28 = and i32 %27, 1
  %29 = icmp ne i32 %28, 0
  br i1 %29, label %30, label %41

30:                                               ; preds = %24
  %31 = load ptr, ptr %7, align 8
  %32 = getelementptr inbounds nuw %struct.vfio_region_info, ptr %31, i32 0, i32 1
  %33 = load i32, ptr %32, align 4
  %34 = and i32 %33, 2
  %35 = icmp ne i32 %34, 0
  br i1 %35, label %36, label %41

36:                                               ; preds = %30
  %37 = load ptr, ptr %7, align 8
  %38 = getelementptr inbounds nuw %struct.vfio_region_info, ptr %37, i32 0, i32 4
  %39 = load i64, ptr %38, align 8
  %40 = icmp ult i64 %39, 786432
  br i1 %40, label %41, label %50

41:                                               ; preds = %36, %30, %24
  %42 = load ptr, ptr %5, align 8
  %43 = load ptr, ptr %7, align 8
  %44 = getelementptr inbounds nuw %struct.vfio_region_info, ptr %43, i32 0, i32 1
  %45 = load i32, ptr %44, align 4
  %46 = zext i32 %45 to i64
  %47 = load ptr, ptr %7, align 8
  %48 = getelementptr inbounds nuw %struct.vfio_region_info, ptr %47, i32 0, i32 4
  %49 = load i64, ptr %48, align 8
  call void (ptr, ptr, i32, ptr, ptr, ...) @error_setg_internal(ptr noundef %42, ptr noundef @.str.11, i32 noundef 2684, ptr noundef @__func__.vfio_populate_vga, ptr noundef @.str.15, i64 noundef %46, i64 noundef %49)
  store i1 false, ptr %3, align 1
  store i32 1, ptr %9, align 4
  br label %219

50:                                               ; preds = %36
  call void @llvm.lifetime.start.p0(i64 8, ptr %10) #19
  store i64 1, ptr %10, align 8
  call void @llvm.lifetime.start.p0(i64 8, ptr %11) #19
  store i64 928, ptr %11, align 8
  call void @llvm.lifetime.start.p0(i64 8, ptr %12) #19
  store ptr null, ptr %12, align 8, !annotation !4
  %51 = load i64, ptr %11, align 8
  %52 = icmp eq i64 %51, 1
  br i1 %52, label %53, label %56

53:                                               ; preds = %50
  %54 = load i64, ptr %10, align 8
  %55 = call noalias ptr @g_malloc0(i64 noundef %54) #22
  store ptr %55, ptr %12, align 8
  br label %77

56:                                               ; preds = %50
  %57 = load i64, ptr %10, align 8
  %58 = call i1 @llvm.is.constant.i64(i64 %57)
  br i1 %58, label %59, label %72

59:                                               ; preds = %56
  %60 = load i64, ptr %11, align 8
  %61 = icmp eq i64 %60, 0
  br i1 %61, label %67, label %62

62:                                               ; preds = %59
  %63 = load i64, ptr %10, align 8
  %64 = load i64, ptr %11, align 8
  %65 = udiv i64 -1, %64
  %66 = icmp ule i64 %63, %65
  br i1 %66, label %67, label %72

67:                                               ; preds = %62, %59
  %68 = load i64, ptr %10, align 8
  %69 = load i64, ptr %11, align 8
  %70 = mul i64 %68, %69
  %71 = call noalias ptr @g_malloc0(i64 noundef %70) #22
  store ptr %71, ptr %12, align 8
  br label %76

72:                                               ; preds = %62, %56
  %73 = load i64, ptr %10, align 8
  %74 = load i64, ptr %11, align 8
  %75 = call noalias ptr @g_malloc0_n(i64 noundef %73, i64 noundef %74) #23
  store ptr %75, ptr %12, align 8
  br label %76

76:                                               ; preds = %72, %67
  br label %77

77:                                               ; preds = %76, %53
  %78 = load ptr, ptr %12, align 8
  store ptr %78, ptr %13, align 8
  call void @llvm.lifetime.end.p0(i64 8, ptr %12) #19
  call void @llvm.lifetime.end.p0(i64 8, ptr %11) #19
  call void @llvm.lifetime.end.p0(i64 8, ptr %10) #19
  %79 = load ptr, ptr %13, align 8
  %80 = load ptr, ptr %4, align 8
  %81 = getelementptr inbounds nuw %struct.VFIOPCIDevice, ptr %80, i32 0, i32 15
  store ptr %79, ptr %81, align 8
  %82 = load ptr, ptr %7, align 8
  %83 = getelementptr inbounds nuw %struct.vfio_region_info, ptr %82, i32 0, i32 5
  %84 = load i64, ptr %83, align 8
  %85 = load ptr, ptr %4, align 8
  %86 = getelementptr inbounds nuw %struct.VFIOPCIDevice, ptr %85, i32 0, i32 15
  %87 = load ptr, ptr %86, align 8
  %88 = getelementptr inbounds nuw %struct.VFIOVGA, ptr %87, i32 0, i32 0
  store i64 %84, ptr %88, align 16
  %89 = load ptr, ptr %4, align 8
  %90 = getelementptr inbounds nuw %struct.VFIOPCIDevice, ptr %89, i32 0, i32 1
  %91 = getelementptr inbounds nuw %struct.VFIODevice, ptr %90, i32 0, i32 8
  %92 = load i32, ptr %91, align 8
  %93 = load ptr, ptr %4, align 8
  %94 = getelementptr inbounds nuw %struct.VFIOPCIDevice, ptr %93, i32 0, i32 15
  %95 = load ptr, ptr %94, align 8
  %96 = getelementptr inbounds nuw %struct.VFIOVGA, ptr %95, i32 0, i32 1
  store i32 %92, ptr %96, align 8
  %97 = load ptr, ptr %4, align 8
  %98 = getelementptr inbounds nuw %struct.VFIOPCIDevice, ptr %97, i32 0, i32 15
  %99 = load ptr, ptr %98, align 8
  %100 = getelementptr inbounds nuw %struct.VFIOVGA, ptr %99, i32 0, i32 2
  %101 = getelementptr inbounds [3 x %struct.VFIOVGARegion], ptr %100, i64 0, i64 0
  %102 = getelementptr inbounds nuw %struct.VFIOVGARegion, ptr %101, i32 0, i32 1
  store i64 655360, ptr %102, align 16
  %103 = load ptr, ptr %4, align 8
  %104 = getelementptr inbounds nuw %struct.VFIOPCIDevice, ptr %103, i32 0, i32 15
  %105 = load ptr, ptr %104, align 8
  %106 = getelementptr inbounds nuw %struct.VFIOVGA, ptr %105, i32 0, i32 2
  %107 = getelementptr inbounds [3 x %struct.VFIOVGARegion], ptr %106, i64 0, i64 0
  %108 = getelementptr inbounds nuw %struct.VFIOVGARegion, ptr %107, i32 0, i32 2
  store i32 0, ptr %108, align 8
  br label %109

109:                                              ; preds = %77
  %110 = load ptr, ptr %4, align 8
  %111 = getelementptr inbounds nuw %struct.VFIOPCIDevice, ptr %110, i32 0, i32 15
  %112 = load ptr, ptr %111, align 8
  %113 = getelementptr inbounds nuw %struct.VFIOVGA, ptr %112, i32 0, i32 2
  %114 = getelementptr inbounds [3 x %struct.VFIOVGARegion], ptr %113, i64 0, i64 0
  %115 = getelementptr inbounds nuw %struct.VFIOVGARegion, ptr %114, i32 0, i32 3
  %116 = getelementptr inbounds nuw %struct.anon, ptr %115, i32 0, i32 0
  store ptr null, ptr %116, align 16
  br label %117

117:                                              ; preds = %109
  br label %118

118:                                              ; preds = %117
  %119 = load ptr, ptr %4, align 8
  %120 = getelementptr inbounds nuw %struct.VFIOPCIDevice, ptr %119, i32 0, i32 15
  %121 = load ptr, ptr %120, align 8
  %122 = getelementptr inbounds nuw %struct.VFIOVGA, ptr %121, i32 0, i32 2
  %123 = getelementptr inbounds [3 x %struct.VFIOVGARegion], ptr %122, i64 0, i64 0
  %124 = getelementptr inbounds nuw %struct.VFIOVGARegion, ptr %123, i32 0, i32 0
  %125 = load ptr, ptr %4, align 8
  %126 = load ptr, ptr %4, align 8
  %127 = getelementptr inbounds nuw %struct.VFIOPCIDevice, ptr %126, i32 0, i32 15
  %128 = load ptr, ptr %127, align 8
  %129 = getelementptr inbounds nuw %struct.VFIOVGA, ptr %128, i32 0, i32 2
  %130 = getelementptr inbounds [3 x %struct.VFIOVGARegion], ptr %129, i64 0, i64 0
  call void @memory_region_init_io(ptr noundef %124, ptr noundef %125, ptr noundef @vfio_vga_ops, ptr noundef %130, ptr noundef @.str.16, i64 noundef 131072)
  %131 = load ptr, ptr %4, align 8
  %132 = getelementptr inbounds nuw %struct.VFIOPCIDevice, ptr %131, i32 0, i32 15
  %133 = load ptr, ptr %132, align 8
  %134 = getelementptr inbounds nuw %struct.VFIOVGA, ptr %133, i32 0, i32 2
  %135 = getelementptr inbounds [3 x %struct.VFIOVGARegion], ptr %134, i64 0, i64 1
  %136 = getelementptr inbounds nuw %struct.VFIOVGARegion, ptr %135, i32 0, i32 1
  store i64 944, ptr %136, align 16
  %137 = load ptr, ptr %4, align 8
  %138 = getelementptr inbounds nuw %struct.VFIOPCIDevice, ptr %137, i32 0, i32 15
  %139 = load ptr, ptr %138, align 8
  %140 = getelementptr inbounds nuw %struct.VFIOVGA, ptr %139, i32 0, i32 2
  %141 = getelementptr inbounds [3 x %struct.VFIOVGARegion], ptr %140, i64 0, i64 1
  %142 = getelementptr inbounds nuw %struct.VFIOVGARegion, ptr %141, i32 0, i32 2
  store i32 1, ptr %142, align 8
  br label %143

143:                                              ; preds = %118
  %144 = load ptr, ptr %4, align 8
  %145 = getelementptr inbounds nuw %struct.VFIOPCIDevice, ptr %144, i32 0, i32 15
  %146 = load ptr, ptr %145, align 8
  %147 = getelementptr inbounds nuw %struct.VFIOVGA, ptr %146, i32 0, i32 2
  %148 = getelementptr inbounds [3 x %struct.VFIOVGARegion], ptr %147, i64 0, i64 1
  %149 = getelementptr inbounds nuw %struct.VFIOVGARegion, ptr %148, i32 0, i32 3
  %150 = getelementptr inbounds nuw %struct.anon, ptr %149, i32 0, i32 0
  store ptr null, ptr %150, align 16
  br label %151

151:                                              ; preds = %143
  br label %152

152:                                              ; preds = %151
  %153 = load ptr, ptr %4, align 8
  %154 = getelementptr inbounds nuw %struct.VFIOPCIDevice, ptr %153, i32 0, i32 15
  %155 = load ptr, ptr %154, align 8
  %156 = getelementptr inbounds nuw %struct.VFIOVGA, ptr %155, i32 0, i32 2
  %157 = getelementptr inbounds [3 x %struct.VFIOVGARegion], ptr %156, i64 0, i64 1
  %158 = getelementptr inbounds nuw %struct.VFIOVGARegion, ptr %157, i32 0, i32 0
  %159 = load ptr, ptr %4, align 8
  %160 = load ptr, ptr %4, align 8
  %161 = getelementptr inbounds nuw %struct.VFIOPCIDevice, ptr %160, i32 0, i32 15
  %162 = load ptr, ptr %161, align 8
  %163 = getelementptr inbounds nuw %struct.VFIOVGA, ptr %162, i32 0, i32 2
  %164 = getelementptr inbounds [3 x %struct.VFIOVGARegion], ptr %163, i64 0, i64 1
  call void @memory_region_init_io(ptr noundef %158, ptr noundef %159, ptr noundef @vfio_vga_ops, ptr noundef %164, ptr noundef @.str.17, i64 noundef 12)
  %165 = load ptr, ptr %4, align 8
  %166 = getelementptr inbounds nuw %struct.VFIOPCIDevice, ptr %165, i32 0, i32 15
  %167 = load ptr, ptr %166, align 8
  %168 = getelementptr inbounds nuw %struct.VFIOVGA, ptr %167, i32 0, i32 2
  %169 = getelementptr inbounds [3 x %struct.VFIOVGARegion], ptr %168, i64 0, i64 2
  %170 = getelementptr inbounds nuw %struct.VFIOVGARegion, ptr %169, i32 0, i32 1
  store i64 960, ptr %170, align 16
  %171 = load ptr, ptr %4, align 8
  %172 = getelementptr inbounds nuw %struct.VFIOPCIDevice, ptr %171, i32 0, i32 15
  %173 = load ptr, ptr %172, align 8
  %174 = getelementptr inbounds nuw %struct.VFIOVGA, ptr %173, i32 0, i32 2
  %175 = getelementptr inbounds [3 x %struct.VFIOVGARegion], ptr %174, i64 0, i64 2
  %176 = getelementptr inbounds nuw %struct.VFIOVGARegion, ptr %175, i32 0, i32 2
  store i32 2, ptr %176, align 8
  br label %177

177:                                              ; preds = %152
  %178 = load ptr, ptr %4, align 8
  %179 = getelementptr inbounds nuw %struct.VFIOPCIDevice, ptr %178, i32 0, i32 15
  %180 = load ptr, ptr %179, align 8
  %181 = getelementptr inbounds nuw %struct.VFIOVGA, ptr %180, i32 0, i32 2
  %182 = getelementptr inbounds [3 x %struct.VFIOVGARegion], ptr %181, i64 0, i64 2
  %183 = getelementptr inbounds nuw %struct.VFIOVGARegion, ptr %182, i32 0, i32 3
  %184 = getelementptr inbounds nuw %struct.anon, ptr %183, i32 0, i32 0
  store ptr null, ptr %184, align 16
  br label %185

185:                                              ; preds = %177
  br label %186

186:                                              ; preds = %185
  %187 = load ptr, ptr %4, align 8
  %188 = getelementptr inbounds nuw %struct.VFIOPCIDevice, ptr %187, i32 0, i32 15
  %189 = load ptr, ptr %188, align 8
  %190 = getelementptr inbounds nuw %struct.VFIOVGA, ptr %189, i32 0, i32 2
  %191 = getelementptr inbounds [3 x %struct.VFIOVGARegion], ptr %190, i64 0, i64 2
  %192 = getelementptr inbounds nuw %struct.VFIOVGARegion, ptr %191, i32 0, i32 0
  %193 = load ptr, ptr %4, align 8
  %194 = load ptr, ptr %4, align 8
  %195 = getelementptr inbounds nuw %struct.VFIOPCIDevice, ptr %194, i32 0, i32 15
  %196 = load ptr, ptr %195, align 8
  %197 = getelementptr inbounds nuw %struct.VFIOVGA, ptr %196, i32 0, i32 2
  %198 = getelementptr inbounds [3 x %struct.VFIOVGARegion], ptr %197, i64 0, i64 2
  call void @memory_region_init_io(ptr noundef %192, ptr noundef %193, ptr noundef @vfio_vga_ops, ptr noundef %198, ptr noundef @.str.18, i64 noundef 32)
  %199 = load ptr, ptr %4, align 8
  %200 = getelementptr inbounds nuw %struct.VFIOPCIDevice, ptr %199, i32 0, i32 0
  %201 = load ptr, ptr %4, align 8
  %202 = getelementptr inbounds nuw %struct.VFIOPCIDevice, ptr %201, i32 0, i32 15
  %203 = load ptr, ptr %202, align 8
  %204 = getelementptr inbounds nuw %struct.VFIOVGA, ptr %203, i32 0, i32 2
  %205 = getelementptr inbounds [3 x %struct.VFIOVGARegion], ptr %204, i64 0, i64 0
  %206 = getelementptr inbounds nuw %struct.VFIOVGARegion, ptr %205, i32 0, i32 0
  %207 = load ptr, ptr %4, align 8
  %208 = getelementptr inbounds nuw %struct.VFIOPCIDevice, ptr %207, i32 0, i32 15
  %209 = load ptr, ptr %208, align 8
  %210 = getelementptr inbounds nuw %struct.VFIOVGA, ptr %209, i32 0, i32 2
  %211 = getelementptr inbounds [3 x %struct.VFIOVGARegion], ptr %210, i64 0, i64 1
  %212 = getelementptr inbounds nuw %struct.VFIOVGARegion, ptr %211, i32 0, i32 0
  %213 = load ptr, ptr %4, align 8
  %214 = getelementptr inbounds nuw %struct.VFIOPCIDevice, ptr %213, i32 0, i32 15
  %215 = load ptr, ptr %214, align 8
  %216 = getelementptr inbounds nuw %struct.VFIOVGA, ptr %215, i32 0, i32 2
  %217 = getelementptr inbounds [3 x %struct.VFIOVGARegion], ptr %216, i64 0, i64 2
  %218 = getelementptr inbounds nuw %struct.VFIOVGARegion, ptr %217, i32 0, i32 0
  call void @pci_register_vga(ptr noundef %200, ptr noundef %206, ptr noundef %212, ptr noundef %218)
  store i1 true, ptr %3, align 1
  store i32 1, ptr %9, align 4
  br label %219

219:                                              ; preds = %186, %41, %20
  call void @llvm.lifetime.end.p0(i64 4, ptr %8) #19
  call void @g_autoptr_cleanup_generic_gfree(ptr noundef %7)
  call void @llvm.lifetime.end.p0(i64 8, ptr %7) #19
  call void @llvm.lifetime.end.p0(i64 8, ptr %6) #19
  %220 = load i1, ptr %3, align 1
  ret i1 %220
}