; Function Attrs: nounwind sspstrong uwtable
define dso_local noundef zeroext i1 @vfio_populate_vga(ptr noundef %0, ptr noundef %1) local_unnamed_addr #0 {
  %3 = alloca ptr, align 8
  %4 = getelementptr inbounds nuw i8, ptr %0, i64 2752
  call void @llvm.lifetime.start.p0(i64 8, ptr nonnull %3) #26
  store ptr null, ptr %3, align 8
  %5 = call i32 @vfio_get_region_info(ptr noundef nonnull %4, i32 noundef 8, ptr noundef nonnull %3) #26
  %.not = icmp eq i32 %5, 0
  br i1 %.not, label %8, label %6

6:                                                ; preds = %2
  %7 = sub i32 0, %5
  call void (ptr, ptr, i32, ptr, i32, ptr, ...) @error_setg_errno_internal(ptr noundef %1, ptr noundef nonnull @.str.11, i32 noundef 2675, ptr noundef nonnull @__func__.vfio_populate_vga, i32 noundef %7, ptr noundef nonnull @.str.14, i32 noundef 8) #26
  br label %50

8:                                                ; preds = %2
  %9 = load ptr, ptr %3, align 8
  %10 = getelementptr inbounds nuw i8, ptr %9, i64 4
  %11 = load i32, ptr %10, align 4
  %12 = and i32 %11, 3
  %or.cond.not = icmp ne i32 %12, 3
  %13 = getelementptr inbounds nuw i8, ptr %9, i64 16
  %14 = load i64, ptr %13, align 8
  %15 = icmp ult i64 %14, 786432
  %or.cond = select i1 %or.cond.not, i1 true, i1 %15
  br i1 %or.cond, label %._crit_edge, label %17

._crit_edge:                                      ; preds = %8
  %16 = zext i32 %11 to i64
  call void (ptr, ptr, i32, ptr, ptr, ...) @error_setg_internal(ptr noundef %1, ptr noundef nonnull @.str.11, i32 noundef 2684, ptr noundef nonnull @__func__.vfio_populate_vga, ptr noundef nonnull @.str.15, i64 noundef %16, i64 noundef %14) #26
  br label %50

17:                                               ; preds = %8
  %18 = call noalias dereferenceable_or_null(928) ptr @g_malloc0(i64 noundef 928) #30
  %19 = getelementptr inbounds nuw i8, ptr %0, i64 3624
  store ptr %18, ptr %19, align 8
  %20 = load ptr, ptr %3, align 8
  %21 = getelementptr inbounds nuw i8, ptr %20, i64 24
  %22 = load i64, ptr %21, align 8
  store i64 %22, ptr %18, align 16
  %23 = getelementptr inbounds nuw i8, ptr %0, i64 2840
  %24 = load i32, ptr %23, align 8
  %25 = getelementptr inbounds nuw i8, ptr %18, i64 8
  store i32 %24, ptr %25, align 8
  %26 = getelementptr inbounds nuw i8, ptr %18, i64 288
  store i64 655360, ptr %26, align 16
  %27 = getelementptr inbounds nuw i8, ptr %18, i64 296
  store i32 0, ptr %27, align 8
  %28 = getelementptr inbounds nuw i8, ptr %18, i64 304
  store ptr null, ptr %28, align 16
  %29 = getelementptr inbounds nuw i8, ptr %18, i64 16
  call void @memory_region_init_io(ptr noundef nonnull %29, ptr noundef nonnull %0, ptr noundef nonnull @vfio_vga_ops, ptr noundef nonnull %29, ptr noundef nonnull @.str.16, i64 noundef 131072) #26
  %30 = load ptr, ptr %19, align 8
  %31 = getelementptr inbounds nuw i8, ptr %30, i64 592
  store i64 944, ptr %31, align 16
  %32 = load ptr, ptr %19, align 8
  %33 = getelementptr inbounds nuw i8, ptr %32, i64 600
  store i32 1, ptr %33, align 8
  %34 = load ptr, ptr %19, align 8
  %35 = getelementptr inbounds nuw i8, ptr %34, i64 608
  store ptr null, ptr %35, align 16
  %36 = load ptr, ptr %19, align 8
  %37 = getelementptr inbounds nuw i8, ptr %36, i64 320
  call void @memory_region_init_io(ptr noundef nonnull %37, ptr noundef nonnull %0, ptr noundef nonnull @vfio_vga_ops, ptr noundef nonnull %37, ptr noundef nonnull @.str.17, i64 noundef 12) #26
  %38 = load ptr, ptr %19, align 8
  %39 = getelementptr inbounds nuw i8, ptr %38, i64 896
  store i64 960, ptr %39, align 16
  %40 = load ptr, ptr %19, align 8
  %41 = getelementptr inbounds nuw i8, ptr %40, i64 904
  store i32 2, ptr %41, align 8
  %42 = load ptr, ptr %19, align 8
  %43 = getelementptr inbounds nuw i8, ptr %42, i64 912
  store ptr null, ptr %43, align 16
  %44 = load ptr, ptr %19, align 8
  %45 = getelementptr inbounds nuw i8, ptr %44, i64 624
  call void @memory_region_init_io(ptr noundef nonnull %45, ptr noundef nonnull %0, ptr noundef nonnull @vfio_vga_ops, ptr noundef nonnull %45, ptr noundef nonnull @.str.18, i64 noundef 32) #26
  %46 = load ptr, ptr %19, align 8
  %47 = getelementptr inbounds nuw i8, ptr %46, i64 16
  %48 = getelementptr inbounds nuw i8, ptr %46, i64 320
  %49 = getelementptr inbounds nuw i8, ptr %46, i64 624
  call void @pci_register_vga(ptr noundef nonnull %0, ptr noundef nonnull %47, ptr noundef nonnull %48, ptr noundef nonnull %49) #26
  br label %50

50:                                               ; preds = %17, %._crit_edge, %6
  %.0 = phi i1 [ false, %6 ], [ false, %._crit_edge ], [ true, %17 ]
  %.val = load ptr, ptr %3, align 8
  call void @g_free(ptr noundef %.val) #26
  call void @llvm.lifetime.end.p0(i64 8, ptr nonnull %3) #26
  ret i1 %.0
}